#include <math.h>
#include <stdio.h>
#include <stdlib.h>
#include <string.h>

int main()
{
	int n,i,j,t,a[20000];
	scanf("%d",&n);
	for(i=0;i<n;i++)
	{
		scanf("%d",&a[i]);
	}
	for(i=0;i<n;i++)
	{
		t=0;
		if(i==0) printf("%d",a[0]);
		else
		{
			for(j=0;j<i;j++)
			{
				if(a[i]==a[j]) t=t+1;
			}
			if(t==0) printf(" %d",a[i]);
		}
	}
	return 0;
}